; ModuleID = '54/1463.cpp'
source_filename = "54/1463.cpp"
target datalayout = "e-m:e-p270:32:32-p271:32:32-p272:64:64-i64:64-f80:128-n8:16:32:64-S128"
target triple = "x86_64-pc-linux-gnu"

%"class.std::ios_base::Init" = type { i8 }
%"class.std::basic_istream" = type { i32 (...)**, i64, %"class.std::basic_ios" }
%"class.std::basic_ios" = type { %"class.std::ios_base", %"class.std::basic_ostream"*, i8, i8, %"class.std::basic_streambuf"*, %"class.std::ctype"*, %"class.std::num_put"*, %"class.std::num_get"* }
%"class.std::ios_base" = type { i32 (...)**, i64, i64, i32, i32, i32, %"struct.std::ios_base::_Callback_list"*, %"struct.std::ios_base::_Words", [8 x %"struct.std::ios_base::_Words"], i32, %"struct.std::ios_base::_Words"*, %"class.std::locale" }
%"struct.std::ios_base::_Callback_list" = type { %"struct.std::ios_base::_Callback_list"*, void (i32, %"class.std::ios_base"*, i32)*, i32, i32 }
%"struct.std::ios_base::_Words" = type { i8*, i64 }
%"class.std::locale" = type { %"class.std::locale::_Impl"* }
%"class.std::locale::_Impl" = type { i32, %"class.std::locale::facet"**, i64, %"class.std::locale::facet"**, i8** }
%"class.std::locale::facet" = type <{ i32 (...)**, i32, [4 x i8] }>
%"class.std::basic_ostream" = type { i32 (...)**, %"class.std::basic_ios" }
%"class.std::basic_streambuf" = type { i32 (...)**, i8*, i8*, i8*, i8*, i8*, i8*, %"class.std::locale" }
%"class.std::ctype" = type <{ %"class.std::locale::facet.base", [4 x i8], %struct.__locale_struct*, i8, [7 x i8], i32*, i32*, i16*, i8, [256 x i8], [256 x i8], i8, [6 x i8] }>
%"class.std::locale::facet.base" = type <{ i32 (...)**, i32 }>
%struct.__locale_struct = type { [13 x %struct.__locale_data*], i16*, i32*, i32*, [13 x i8*] }
%struct.__locale_data = type opaque
%"class.std::num_put" = type { %"class.std::locale::facet.base", [4 x i8] }
%"class.std::num_get" = type { %"class.std::locale::facet.base", [4 x i8] }

@_ZStL8__ioinit = internal global %"class.std::ios_base::Init" zeroinitializer, align 1
@__dso_handle = external hidden global i8
@n = dso_local global i32 0, align 4
@k = dso_local global i32 0, align 4
@total = dso_local global i32 0, align 4
@xishu = dso_local global float 0.000000e+00, align 4
@_ZSt3cin = external dso_local global %"class.std::basic_istream", align 8
@_ZSt4cout = external dso_local global %"class.std::basic_ostream", align 8
@llvm.global_ctors = appending global [1 x { i32, void ()*, i8* }] [{ i32, void ()*, i8* } { i32 65535, void ()* @_GLOBAL__sub_I_1463.cpp, i8* null }]

; Function Attrs: noinline uwtable
define internal void @__cxx_global_var_init() #0 section ".text.startup" {
  call void @_ZNSt8ios_base4InitC1Ev(%"class.std::ios_base::Init"* @_ZStL8__ioinit)
  %1 = call i32 @__cxa_atexit(void (i8*)* bitcast (void (%"class.std::ios_base::Init"*)* @_ZNSt8ios_base4InitD1Ev to void (i8*)*), i8* getelementptr inbounds (%"class.std::ios_base::Init", %"class.std::ios_base::Init"* @_ZStL8__ioinit, i32 0, i32 0), i8* @__dso_handle) #3
  ret void
}

declare dso_local void @_ZNSt8ios_base4InitC1Ev(%"class.std::ios_base::Init"*) unnamed_addr #1

; Function Attrs: nounwind
declare dso_local void @_ZNSt8ios_base4InitD1Ev(%"class.std::ios_base::Init"*) unnamed_addr #2

; Function Attrs: nounwind
declare dso_local i32 @__cxa_atexit(void (i8*)*, i8*, i8*) #3

; Function Attrs: noinline norecurse uwtable
define dso_local i32 @main() #4 {
  %1 = alloca i32, align 4
  %2 = alloca i32, align 4
  store i32 0, i32* %1, align 4
  %3 = call dereferenceable(280) %"class.std::basic_istream"* @_ZNSirsERi(%"class.std::basic_istream"* @_ZSt3cin, i32* dereferenceable(4) @n)
  %4 = call dereferenceable(280) %"class.std::basic_istream"* @_ZNSirsERi(%"class.std::basic_istream"* %3, i32* dereferenceable(4) @k)
  %5 = load i32, i32* @n, align 4
  store i32 %5, i32* @total, align 4
  %6 = load i32, i32* @n, align 4
  %7 = sitofp i32 %6 to float
  %8 = load i32, i32* @n, align 4
  %9 = sub nsw i32 %8, 1
  %10 = sitofp i32 %9 to float
  %11 = fdiv float %7, %10
  store float %11, float* @xishu, align 4
  br label %12

12:                                               ; preds = %0, %37
  store i32 1, i32* %2, align 4
  br label %13

13:                                               ; preds = %28, %12
  %14 = load i32, i32* %2, align 4
  %15 = load i32, i32* @n, align 4
  %16 = icmp sle i32 %14, %15
  br i1 %16, label %17, label %31

17:                                               ; preds = %13
  %18 = load i32, i32* %2, align 4
  %19 = load i32, i32* @k, align 4
  %20 = call i32 @_Z5mseesii(i32 %18, i32 %19)
  %21 = load i32, i32* @k, align 4
  %22 = sub nsw i32 %20, %21
  %23 = load i32, i32* @n, align 4
  %24 = srem i32 %22, %23
  %25 = icmp ne i32 %24, 0
  br i1 %25, label %26, label %27

26:                                               ; preds = %17
  br label %31

27:                                               ; preds = %17
  br label %28

28:                                               ; preds = %27
  %29 = load i32, i32* %2, align 4
  %30 = add nsw i32 %29, 1
  store i32 %30, i32* %2, align 4
  br label %13

31:                                               ; preds = %26, %13
  %32 = load i32, i32* %2, align 4
  %33 = load i32, i32* @n, align 4
  %34 = add nsw i32 %33, 1
  %35 = icmp eq i32 %32, %34
  br i1 %35, label %36, label %37

36:                                               ; preds = %31
  br label %41

37:                                               ; preds = %31
  %38 = load i32, i32* @n, align 4
  %39 = load i32, i32* @total, align 4
  %40 = add nsw i32 %39, %38
  store i32 %40, i32* @total, align 4
  br label %12

41:                                               ; preds = %36
  %42 = load i32, i32* @n, align 4
  %43 = load i32, i32* @k, align 4
  %44 = call i32 @_Z5mseesii(i32 %42, i32 %43)
  %45 = call dereferenceable(272) %"class.std::basic_ostream"* @_ZNSolsEi(%"class.std::basic_ostream"* @_ZSt4cout, i32 %44)
  %46 = call dereferenceable(272) %"class.std::basic_ostream"* @_ZNSolsEPFRSoS_E(%"class.std::basic_ostream"* %45, %"class.std::basic_ostream"* (%"class.std::basic_ostream"*)* @_ZSt4endlIcSt11char_traitsIcEERSt13basic_ostreamIT_T0_ES6_)
  ret i32 0
}

declare dso_local dereferenceable(280) %"class.std::basic_istream"* @_ZNSirsERi(%"class.std::basic_istream"*, i32* dereferenceable(4)) #1

; Function Attrs: noinline uwtable
define dso_local i32 @_Z5mseesii(i32 %0, i32 %1) #0 {
  %3 = alloca i32, align 4
  %4 = alloca i32, align 4
  %5 = alloca i32, align 4
  store i32 %0, i32* %4, align 4
  store i32 %1, i32* %5, align 4
  %6 = load i32, i32* %4, align 4
  %7 = icmp eq i32 %6, 1
  br i1 %7, label %8, label %12

8:                                                ; preds = %2
  %9 = load i32, i32* @total, align 4
  %10 = load i32, i32* %5, align 4
  %11 = add nsw i32 %9, %10
  store i32 %11, i32* %3, align 4
  br label %24

12:                                               ; preds = %2
  %13 = load i32, i32* %5, align 4
  %14 = sitofp i32 %13 to float
  %15 = load float, float* @xishu, align 4
  %16 = load i32, i32* %4, align 4
  %17 = sub nsw i32 %16, 1
  %18 = load i32, i32* %5, align 4
  %19 = call i32 @_Z5mseesii(i32 %17, i32 %18)
  %20 = sitofp i32 %19 to float
  %21 = fmul float %15, %20
  %22 = fadd float %14, %21
  %23 = fptosi float %22 to i32
  store i32 %23, i32* %3, align 4
  br label %24

24:                                               ; preds = %12, %8
  %25 = load i32, i32* %3, align 4
  ret i32 %25
}

declare dso_local dereferenceable(272) %"class.std::basic_ostream"* @_ZNSolsEi(%"class.std::basic_ostream"*, i32) #1

declare dso_local dereferenceable(272) %"class.std::basic_ostream"* @_ZNSolsEPFRSoS_E(%"class.std::basic_ostream"*, %"class.std::basic_ostream"* (%"class.std::basic_ostream"*)*) #1

declare dso_local dereferenceable(272) %"class.std::basic_ostream"* @_ZSt4endlIcSt11char_traitsIcEERSt13basic_ostreamIT_T0_ES6_(%"class.std::basic_ostream"* dereferenceable(272)) #1

; Function Attrs: noinline uwtable
define internal void @_GLOBAL__sub_I_1463.cpp() #0 section ".text.startup" {
  call void @__cxx_global_var_init()
  ret void
}


!llvm.module.flags = !{!0}
!llvm.ident = !{!1}

!0 = !{i32 1, !"wchar_size", i32 4}
!1 = !{!"clang version 10.0.0-4ubuntu1 "}
